target datalayout = "e-m:e-p270:32:32-p271:32:32-p272:64:64-i64:64-i128:128-f80:128-n8:16:32:64-S128"
target triple = "x86_64-pc-linux-gnu"

%"class.icu_77::DateTimeRule" = type <{ %"class.icu_77::UObject", i32, i32, i32, i32, i32, i32, i32, [4 x i8] }>
%"class.icu_77::UObject" = type { ptr }

@_ZTVN6icu_7712DateTimeRuleE = unnamed_addr constant { [5 x ptr] } { [5 x ptr] [ptr null, ptr @_ZTIN6icu_7712DateTimeRuleE, ptr @_ZN6icu_7712DateTimeRuleD1Ev, ptr @_ZN6icu_7712DateTimeRuleD0Ev, ptr @_ZNK6icu_7712DateTimeRule17getDynamicClassIDEv] }, align 8
@_ZTVN6icu_777UObjectE = available_externally unnamed_addr constant { [5 x ptr] } { [5 x ptr] [ptr null, ptr @_ZTIN6icu_777UObjectE, ptr @_ZN6icu_777UObjectD1Ev, ptr @_ZN6icu_777UObjectD0Ev, ptr @_ZNK6icu_777UObject17getDynamicClassIDEv] }, align 8

; Function Attrs: inlinehint mustprogress nounwind uwtable
define linkonce_odr void @_ZN6icu_777UObjectC2ERKS0_(ptr noundef nonnull align 8 dereferenceable(8) %0, ptr noundef nonnull align 8 dereferenceable(8) %1) unnamed_addr #1 comdat align 2 {
  %3 = alloca ptr, align 8
  %4 = alloca ptr, align 8
  store ptr %0, ptr %3, align 8, !tbaa !24
  store ptr %1, ptr %4, align 8, !tbaa !24
  %5 = load ptr, ptr %3, align 8
  store ptr getelementptr inbounds inrange(-16, 24) ({ [5 x ptr] }, ptr @_ZTVN6icu_777UObjectE, i32 0, i32 0, i32 2), ptr %5, align 8, !tbaa !12
  ret void
}

; Function Attrs: mustprogress nounwind uwtable
define void @_ZN6icu_7712DateTimeRuleC2ERKS0_(ptr noundef nonnull align 8 dereferenceable(36) %0, ptr noundef nonnull align 8 dereferenceable(36) %1) unnamed_addr #0 align 2 {
  %3 = alloca ptr, align 8
  %4 = alloca ptr, align 8
  store ptr %0, ptr %3, align 8, !tbaa !3
  store ptr %1, ptr %4, align 8, !tbaa !3
  %5 = load ptr, ptr %3, align 8
  %6 = load ptr, ptr %4, align 8, !tbaa !3
  call void @_ZN6icu_777UObjectC2ERKS0_(ptr noundef nonnull align 8 dereferenceable(8) %5, ptr noundef nonnull align 8 dereferenceable(8) %6) #6
  store ptr getelementptr inbounds inrange(-16, 24) ({ [5 x ptr] }, ptr @_ZTVN6icu_7712DateTimeRuleE, i32 0, i32 0, i32 2), ptr %5, align 8, !tbaa !12
  %7 = getelementptr inbounds nuw %"class.icu_77::DateTimeRule", ptr %5, i32 0, i32 1
  %8 = load ptr, ptr %4, align 8, !tbaa !3
  %9 = getelementptr inbounds nuw %"class.icu_77::DateTimeRule", ptr %8, i32 0, i32 1
  %10 = load i32, ptr %9, align 8, !tbaa !14
  store i32 %10, ptr %7, align 8, !tbaa !14
  %11 = getelementptr inbounds nuw %"class.icu_77::DateTimeRule", ptr %5, i32 0, i32 2
  %12 = load ptr, ptr %4, align 8, !tbaa !3
  %13 = getelementptr inbounds nuw %"class.icu_77::DateTimeRule", ptr %12, i32 0, i32 2
  %14 = load i32, ptr %13, align 4, !tbaa !18
  store i32 %14, ptr %11, align 4, !tbaa !18
  %15 = getelementptr inbounds nuw %"class.icu_77::DateTimeRule", ptr %5, i32 0, i32 3
  %16 = load ptr, ptr %4, align 8, !tbaa !3
  %17 = getelementptr inbounds nuw %"class.icu_77::DateTimeRule", ptr %16, i32 0, i32 3
  %18 = load i32, ptr %17, align 8, !tbaa !19
  store i32 %18, ptr %15, align 8, !tbaa !19
  %19 = getelementptr inbounds nuw %"class.icu_77::DateTimeRule", ptr %5, i32 0, i32 4
  %20 = load ptr, ptr %4, align 8, !tbaa !3
  %21 = getelementptr inbounds nuw %"class.icu_77::DateTimeRule", ptr %20, i32 0, i32 4
  %22 = load i32, ptr %21, align 4, !tbaa !20
  store i32 %22, ptr %19, align 4, !tbaa !20
  %23 = getelementptr inbounds nuw %"class.icu_77::DateTimeRule", ptr %5, i32 0, i32 5
  %24 = load ptr, ptr %4, align 8, !tbaa !3
  %25 = getelementptr inbounds nuw %"class.icu_77::DateTimeRule", ptr %24, i32 0, i32 5
  %26 = load i32, ptr %25, align 8, !tbaa !21
  store i32 %26, ptr %23, align 8, !tbaa !21
  %27 = getelementptr inbounds nuw %"class.icu_77::DateTimeRule", ptr %5, i32 0, i32 6
  %28 = load ptr, ptr %4, align 8, !tbaa !3
  %29 = getelementptr inbounds nuw %"class.icu_77::DateTimeRule", ptr %28, i32 0, i32 6
  %30 = load i32, ptr %29, align 4, !tbaa !22
  store i32 %30, ptr %27, align 4, !tbaa !22
  %31 = getelementptr inbounds nuw %"class.icu_77::DateTimeRule", ptr %5, i32 0, i32 7
  %32 = load ptr, ptr %4, align 8, !tbaa !3
  %33 = getelementptr inbounds nuw %"class.icu_77::DateTimeRule", ptr %32, i32 0, i32 7
  %34 = load i32, ptr %33, align 8, !tbaa !23
  store i32 %34, ptr %31, align 8, !tbaa !23
  ret void
}