; Function Attrs: mustprogress nofree norecurse nosync nounwind willreturn memory(argmem: readwrite) uwtable
define void @_ZN6icu_7712DateTimeRuleC2ERKS0_(ptr noundef nonnull writeonly align 8 captures(none) dereferenceable(36) initializes((0, 36)) %0, ptr noundef nonnull readonly align 8 captures(none) dereferenceable(36) %1) unnamed_addr #2 align 2 {
  store ptr getelementptr inbounds nuw inrange(-16, 24) (i8, ptr @_ZTVN6icu_7712DateTimeRuleE, i64 16), ptr %0, align 8, !tbaa !3
  %3 = getelementptr inbounds nuw i8, ptr %0, i64 8
  %4 = getelementptr inbounds nuw i8, ptr %1, i64 8
  %5 = load i32, ptr %4, align 8, !tbaa !6
  store i32 %5, ptr %3, align 8, !tbaa !6
  %6 = getelementptr inbounds nuw i8, ptr %0, i64 12
  %7 = getelementptr inbounds nuw i8, ptr %1, i64 12
  %8 = load i32, ptr %7, align 4, !tbaa !13
  store i32 %8, ptr %6, align 4, !tbaa !13
  %9 = getelementptr inbounds nuw i8, ptr %0, i64 16
  %10 = getelementptr inbounds nuw i8, ptr %1, i64 16
  %11 = load i32, ptr %10, align 8, !tbaa !14
  store i32 %11, ptr %9, align 8, !tbaa !14
  %12 = getelementptr inbounds nuw i8, ptr %0, i64 20
  %13 = getelementptr inbounds nuw i8, ptr %1, i64 20
  %14 = load i32, ptr %13, align 4, !tbaa !15
  store i32 %14, ptr %12, align 4, !tbaa !15
  %15 = getelementptr inbounds nuw i8, ptr %0, i64 24
  %16 = getelementptr inbounds nuw i8, ptr %1, i64 24
  %17 = load i32, ptr %16, align 8, !tbaa !16
  store i32 %17, ptr %15, align 8, !tbaa !16
  %18 = getelementptr inbounds nuw i8, ptr %0, i64 28
  %19 = getelementptr inbounds nuw i8, ptr %1, i64 28
  %20 = load i32, ptr %19, align 4, !tbaa !17
  store i32 %20, ptr %18, align 4, !tbaa !17
  %21 = getelementptr inbounds nuw i8, ptr %0, i64 32
  %22 = getelementptr inbounds nuw i8, ptr %1, i64 32
  %23 = load i32, ptr %22, align 8, !tbaa !18
  store i32 %23, ptr %21, align 8, !tbaa !18
  ret void
}